target datalayout = "e-m:e-p270:32:32-p271:32:32-p272:64:64-i64:64-i128:128-f80:128-n8:16:32:64-S128"
target triple = "x86_64-pc-linux-gnu"

%struct.ParseContext_ = type { %struct.TokenData, i32, %union.SourceSpan, %union.SourceSpan, ptr, %struct.Lexer }
%struct.TokenData = type { ptr, i64, %union.anon.86 }
%union.anon.86 = type { %struct.anon.89 }
%struct.anon.89 = type { %struct.Int128_, i8 }
%struct.Int128_ = type { i64, i64 }
%union.SourceSpan = type { i64 }
%struct.Lexer = type { ptr, ptr, ptr, ptr, i32, i32, ptr, ptr, ptr, %struct.TokenData, %union.SourceSpan, i32, i32 }

@.str.79 = private unnamed_addr constant [50 x i8] c"Names of %ss must start with an uppercase letter.\00", align 1
@.str.80 = private unnamed_addr constant [38 x i8] c"Names of %ss cannot be all uppercase.\00", align 1
@.str.81 = private unnamed_addr constant [47 x i8] c"'%s' should be followed by the name of the %s.\00", align 1

; Function Attrs: nounwind uwtable
define internal zeroext i1 @consume_type_name(ptr noundef %0, ptr noundef %1) #0 {
  %3 = alloca i32, align 4
  %4 = alloca ptr, align 8
  %5 = alloca i32, align 4
  %6 = alloca ptr, align 8
  %7 = alloca i32, align 4
  %8 = alloca i1, align 1
  %9 = alloca ptr, align 8
  %10 = alloca ptr, align 8
  store ptr %0, ptr %9, align 8
  store ptr %1, ptr %10, align 8
  %11 = load ptr, ptr %9, align 8
  store ptr %11, ptr %4, align 8
  store i32 64, ptr %5, align 4
  %12 = load ptr, ptr %4, align 8
  %13 = getelementptr inbounds %struct.ParseContext_, ptr %12, i32 0, i32 1
  %14 = load i32, ptr %13, align 8
  %15 = load i32, ptr %5, align 4
  %16 = icmp eq i32 %14, %15
  br i1 %16, label %28, label %17

17:                                               ; preds = %2
  %18 = load ptr, ptr %9, align 8
  %19 = getelementptr inbounds %struct.ParseContext_, ptr %18, i32 0, i32 1
  %20 = load i32, ptr %19, align 8
  store i32 %20, ptr %3, align 4
  %21 = load i32, ptr %3, align 4
  %22 = icmp uge i32 %21, 82
  br i1 %22, label %23, label %26

23:                                               ; preds = %17
  %24 = load i32, ptr %3, align 4
  %25 = icmp ule i32 %24, 144
  br label %26

26:                                               ; preds = %23, %17
  %27 = phi i1 [ false, %17 ], [ %25, %23 ]
  br i1 %27, label %28, label %36

28:                                               ; preds = %26, %2
  br label %29

29:                                               ; preds = %28
  %30 = load ptr, ptr %9, align 8
  %31 = getelementptr inbounds %struct.ParseContext_, ptr %30, i32 0, i32 2
  %32 = load ptr, ptr %10, align 8
  %33 = getelementptr inbounds %union.SourceSpan, ptr %31, i32 0, i32 0
  %34 = load i64, ptr %33, align 8
  call void (i64, ptr, ...) @sema_error_at(i64 %34, ptr noundef @.str.79, ptr noundef %32)
  store i1 false, ptr %8, align 1
  br label %56

35:                                               ; No predecessors!
  br label %36

36:                                               ; preds = %35, %26
  %37 = load ptr, ptr %9, align 8
  store ptr %37, ptr %6, align 8
  store i32 65, ptr %7, align 4
  %38 = load ptr, ptr %6, align 8
  %39 = getelementptr inbounds %struct.ParseContext_, ptr %38, i32 0, i32 1
  %40 = load i32, ptr %39, align 8
  %41 = load i32, ptr %7, align 4
  %42 = icmp eq i32 %40, %41
  br i1 %42, label %43, label %51

43:                                               ; preds = %36
  br label %44

44:                                               ; preds = %43
  %45 = load ptr, ptr %9, align 8
  %46 = getelementptr inbounds %struct.ParseContext_, ptr %45, i32 0, i32 2
  %47 = load ptr, ptr %10, align 8
  %48 = getelementptr inbounds %union.SourceSpan, ptr %46, i32 0, i32 0
  %49 = load i64, ptr %48, align 8
  call void (i64, ptr, ...) @sema_error_at(i64 %49, ptr noundef @.str.80, ptr noundef %47)
  store i1 false, ptr %8, align 1
  br label %56

50:                                               ; No predecessors!
  br label %51

51:                                               ; preds = %50, %36
  %52 = load ptr, ptr %9, align 8
  %53 = load ptr, ptr %10, align 8
  %54 = load ptr, ptr %10, align 8
  %55 = call zeroext i1 (ptr, i32, ptr, ...) @consume(ptr noundef %52, i32 noundef 66, ptr noundef @.str.81, ptr noundef %53, ptr noundef %54)
  store i1 %55, ptr %8, align 1
  br label %56

56:                                               ; preds = %51, %44, %29
  %57 = load i1, ptr %8, align 1
  ret i1 %57
}