; Function Attrs: nounwind uwtable
define internal fastcc zeroext i1 @consume_type_name(ptr noundef %0, ptr noundef %1) unnamed_addr #0 {
  %3 = getelementptr inbounds i8, ptr %0, i64 40
  %4 = load i32, ptr %3, align 8
  %5 = icmp eq i32 %4, 64
  %6 = add i32 %4, -82
  %7 = icmp ult i32 %6, 63
  %or.cond = or i1 %5, %7
  br i1 %or.cond, label %8, label %11

8:                                                ; preds = %2
  %9 = getelementptr inbounds i8, ptr %0, i64 48
  %10 = load i64, ptr %9, align 8
  tail call void (i64, ptr, ...) @sema_error_at(i64 %10, ptr noundef nonnull @.str.79, ptr noundef %1) #8
  br label %18

11:                                               ; preds = %2
  %12 = icmp eq i32 %4, 65
  br i1 %12, label %13, label %16

13:                                               ; preds = %11
  %14 = getelementptr inbounds i8, ptr %0, i64 48
  %15 = load i64, ptr %14, align 8
  tail call void (i64, ptr, ...) @sema_error_at(i64 %15, ptr noundef nonnull @.str.80, ptr noundef %1) #8
  br label %18

16:                                               ; preds = %11
  %17 = tail call zeroext i1 (ptr, i32, ptr, ...) @consume(ptr noundef nonnull %0, i32 noundef 66, ptr noundef nonnull @.str.81, ptr noundef %1, ptr noundef %1) #8
  br label %18

18:                                               ; preds = %16, %13, %8
  %.0 = phi i1 [ false, %8 ], [ false, %13 ], [ %17, %16 ]
  ret i1 %.0
}